target datalayout = "e-m:e-p270:32:32-p271:32:32-p272:64:64-i64:64-i128:128-f80:128-n8:16:32:64-S128"
target triple = "x86_64-pc-linux-gnu"

%struct.tMPI_Thread_key_t = type { %struct.tMPI_Atomic, ptr }
%struct.tMPI_Atomic = type { i32, [60 x i8] }

@threads = global ptr null, align 8
@id_key = global %struct.tMPI_Thread_key_t zeroinitializer, align 8
@.str.4 = private unnamed_addr constant [9 x i8] c"thread #\00", align 1

; Function Attrs: mustprogress uwtable
define noundef i32 @_Z23tMPI_Get_processor_namePcPi(ptr noundef %0, ptr noundef %1) #0 {
  %3 = alloca ptr, align 8
  %4 = alloca ptr, align 8
  %5 = alloca i32, align 4
  %6 = alloca %struct.tMPI_Thread_key_t, align 8
  %7 = alloca i32, align 4
  %8 = alloca i32, align 4
  %9 = alloca i32, align 4
  %10 = alloca i64, align 8
  %11 = alloca i32, align 4
  %12 = alloca i32, align 4
  %13 = alloca i64, align 8
  store ptr %0, ptr %3, align 8, !tbaa !55
  store ptr %1, ptr %4, align 8, !tbaa !51
  call void @llvm.lifetime.start.p0(i64 4, ptr %5) #11
  call void @llvm.memcpy.p0.p0.i64(ptr align 8 %6, ptr align 8 @id_key, i64 72, i1 false), !tbaa.struct !29
  %14 = call noundef ptr @_Z23tMPI_Thread_getspecific17tMPI_Thread_key_t(ptr noundef byval(%struct.tMPI_Thread_key_t) align 8 %6)
  %15 = load ptr, ptr @threads, align 8, !tbaa !34
  %16 = ptrtoint ptr %14 to i64
  %17 = ptrtoint ptr %15 to i64
  %18 = sub i64 %16, %17
  %19 = sdiv exact i64 %18, 424
  %20 = trunc i64 %19 to i32
  store i32 %20, ptr %5, align 4, !tbaa !30
  call void @llvm.lifetime.start.p0(i64 4, ptr %7) #11
  store i32 0, ptr %7, align 4, !tbaa !30
  call void @llvm.lifetime.start.p0(i64 4, ptr %8) #11
  store i32 10, ptr %8, align 4, !tbaa !30
  call void @llvm.lifetime.start.p0(i64 4, ptr %9) #11
  %21 = load i32, ptr %5, align 4, !tbaa !30
  store i32 %21, ptr %9, align 4, !tbaa !30
  br label %22

22:                                               ; preds = %25, %2
  %23 = load i32, ptr %9, align 4, !tbaa !30
  %24 = icmp sgt i32 %23, 0
  br i1 %24, label %25, label %30

25:                                               ; preds = %22
  %26 = load i32, ptr %9, align 4, !tbaa !30
  %27 = udiv i32 %26, 10
  store i32 %27, ptr %9, align 4, !tbaa !30
  %28 = load i32, ptr %7, align 4, !tbaa !30
  %29 = add i32 %28, 1
  store i32 %29, ptr %7, align 4, !tbaa !30
  br label %22, !llvm.loop !98

30:                                               ; preds = %22
  %31 = load i32, ptr %7, align 4, !tbaa !30
  %32 = icmp eq i32 %31, 0
  br i1 %32, label %33, label %34

33:                                               ; preds = %30
  store i32 1, ptr %7, align 4, !tbaa !30
  br label %34

34:                                               ; preds = %33, %30
  call void @llvm.lifetime.end.p0(i64 4, ptr %9) #11
  %35 = load ptr, ptr %3, align 8, !tbaa !55
  %36 = call ptr @strcpy(ptr noundef %35, ptr noundef @.str.4) #11
  call void @llvm.lifetime.start.p0(i64 8, ptr %10) #11
  %37 = load ptr, ptr %3, align 8, !tbaa !55
  %38 = call i64 @strlen(ptr noundef %37) #12
  store i64 %38, ptr %10, align 8, !tbaa !99
  call void @llvm.lifetime.start.p0(i64 4, ptr %11) #11
  call void @llvm.lifetime.start.p0(i64 4, ptr %12) #11
  %39 = load i32, ptr %5, align 4, !tbaa !30
  store i32 %39, ptr %12, align 4, !tbaa !30
  store i32 0, ptr %11, align 4, !tbaa !30
  br label %40

40:                                               ; preds = %65, %34
  %41 = load i32, ptr %11, align 4, !tbaa !30
  %42 = load i32, ptr %7, align 4, !tbaa !30
  %43 = icmp ult i32 %41, %42
  br i1 %43, label %44, label %68

44:                                               ; preds = %40
  call void @llvm.lifetime.start.p0(i64 8, ptr %13) #11
  %45 = load i64, ptr %10, align 8, !tbaa !99
  %46 = load i32, ptr %7, align 4, !tbaa !30
  %47 = load i32, ptr %11, align 4, !tbaa !30
  %48 = sub i32 %46, %47
  %49 = sub i32 %48, 1
  %50 = zext i32 %49 to i64
  %51 = add i64 %45, %50
  store i64 %51, ptr %13, align 8, !tbaa !99
  %52 = load i64, ptr %13, align 8, !tbaa !99
  %53 = icmp ult i64 %52, 127
  br i1 %53, label %54, label %62

54:                                               ; preds = %44
  %55 = load i32, ptr %12, align 4, !tbaa !30
  %56 = urem i32 %55, 10
  %57 = add i32 48, %56
  %58 = trunc i32 %57 to i8
  %59 = load ptr, ptr %3, align 8, !tbaa !55
  %60 = load i64, ptr %13, align 8, !tbaa !99
  %61 = getelementptr inbounds nuw i8, ptr %59, i64 %60
  store i8 %58, ptr %61, align 1, !tbaa !31
  br label %62

62:                                               ; preds = %54, %44
  %63 = load i32, ptr %12, align 4, !tbaa !30
  %64 = udiv i32 %63, 10
  store i32 %64, ptr %12, align 4, !tbaa !30
  call void @llvm.lifetime.end.p0(i64 8, ptr %13) #11
  br label %65

65:                                               ; preds = %62
  %66 = load i32, ptr %11, align 4, !tbaa !30
  %67 = add i32 %66, 1
  store i32 %67, ptr %11, align 4, !tbaa !30
  br label %40, !llvm.loop !100

68:                                               ; preds = %40
  %69 = load i32, ptr %7, align 4, !tbaa !30
  %70 = zext i32 %69 to i64
  %71 = load i64, ptr %10, align 8, !tbaa !99
  %72 = add i64 %70, %71
  %73 = icmp ult i64 %72, 128
  br i1 %73, label %74, label %81

74:                                               ; preds = %68
  %75 = load ptr, ptr %3, align 8, !tbaa !55
  %76 = load i32, ptr %7, align 4, !tbaa !30
  %77 = zext i32 %76 to i64
  %78 = load i64, ptr %10, align 8, !tbaa !99
  %79 = add i64 %77, %78
  %80 = getelementptr inbounds nuw i8, ptr %75, i64 %79
  store i8 0, ptr %80, align 1, !tbaa !31
  br label %84

81:                                               ; preds = %68
  %82 = load ptr, ptr %3, align 8, !tbaa !55
  %83 = getelementptr inbounds i8, ptr %82, i64 128
  store i8 0, ptr %83, align 1, !tbaa !31
  br label %84

84:                                               ; preds = %81, %74
  call void @llvm.lifetime.end.p0(i64 4, ptr %12) #11
  call void @llvm.lifetime.end.p0(i64 4, ptr %11) #11
  call void @llvm.lifetime.end.p0(i64 8, ptr %10) #11
  %85 = load ptr, ptr %4, align 8, !tbaa !51
  %86 = icmp ne ptr %85, null
  br i1 %86, label %87, label %92

87:                                               ; preds = %84
  %88 = load ptr, ptr %3, align 8, !tbaa !55
  %89 = call i64 @strlen(ptr noundef %88) #12
  %90 = trunc i64 %89 to i32
  %91 = load ptr, ptr %4, align 8, !tbaa !51
  store i32 %90, ptr %91, align 4, !tbaa !30
  br label %92

92:                                               ; preds = %87, %84
  call void @llvm.lifetime.end.p0(i64 4, ptr %8) #11
  call void @llvm.lifetime.end.p0(i64 4, ptr %7) #11
  call void @llvm.lifetime.end.p0(i64 4, ptr %5) #11
  ret i32 0
}