; Function Attrs: mustprogress uwtable
define noundef i32 @_Z23tMPI_Get_processor_namePcPi(ptr noundef captures(none) %0, ptr noundef writeonly %1) local_unnamed_addr #0 {
  %3 = tail call noundef ptr @_Z23tMPI_Thread_getspecific17tMPI_Thread_key_t(ptr noundef nonnull byval(%struct.tMPI_Thread_key_t) align 8 @id_key)
  %4 = load ptr, ptr @threads, align 8, !tbaa !29
  %5 = ptrtoint ptr %3 to i64
  %6 = ptrtoint ptr %4 to i64
  %7 = sub i64 %5, %6
  %8 = sdiv exact i64 %7, 424
  %9 = trunc i64 %8 to i32
  %10 = icmp sgt i32 %9, 0
  br i1 %10, label %.lr.ph, label %._crit_edge

.lr.ph:                                           ; preds = %2, %.lr.ph
  %.034 = phi i32 [ %12, %.lr.ph ], [ 0, %2 ]
  %.02933 = phi i32 [ %11, %.lr.ph ], [ %9, %2 ]
  %11 = udiv i32 %.02933, 10
  %12 = add i32 %.034, 1
  %.not37 = icmp samesign ult i32 %.02933, 10
  br i1 %.not37, label %._crit_edge, label %.lr.ph, !llvm.loop !89

._crit_edge:                                      ; preds = %.lr.ph, %2
  %.0.lcssa = phi i32 [ 0, %2 ], [ %12, %.lr.ph ]
  %spec.store.select = tail call i32 @llvm.umax.i32(i32 %.0.lcssa, i32 1)
  tail call void @llvm.memcpy.p0.p0.i64(ptr noundef nonnull align 1 dereferenceable(9) %0, ptr noundef nonnull align 1 dereferenceable(9) @.str.4, i64 9, i1 false) #18
  %13 = tail call i64 @strlen(ptr noundef nonnull dereferenceable(1) %0) #17
  %wide.trip.count = zext i32 %spec.store.select to i64
  br label %14

14:                                               ; preds = %._crit_edge, %27
  %indvars.iv = phi i64 [ 0, %._crit_edge ], [ %indvars.iv.next, %27 ]
  %.02736 = phi i32 [ %9, %._crit_edge ], [ %21, %27 ]
  %15 = trunc nuw i64 %indvars.iv to i32
  %16 = xor i32 %15, -1
  %17 = add i32 %spec.store.select, %16
  %18 = zext i32 %17 to i64
  %19 = add i64 %13, %18
  %20 = icmp ult i64 %19, 127
  %21 = udiv i32 %.02736, 10
  %22 = urem i32 %.02736, 10
  br i1 %20, label %23, label %27

23:                                               ; preds = %14
  %24 = trunc nuw nsw i32 %22 to i8
  %25 = or disjoint i8 %24, 48
  %26 = getelementptr inbounds nuw i8, ptr %0, i64 %19
  store i8 %25, ptr %26, align 1, !tbaa !52
  br label %27

27:                                               ; preds = %23, %14
  %indvars.iv.next = add nuw nsw i64 %indvars.iv, 1
  %exitcond.not = icmp eq i64 %indvars.iv.next, %wide.trip.count
  br i1 %exitcond.not, label %28, label %14, !llvm.loop !90

28:                                               ; preds = %27
  %29 = add i64 %13, %wide.trip.count
  %. = tail call i64 @llvm.umin.i64(i64 %29, i64 128)
  %30 = getelementptr inbounds nuw i8, ptr %0, i64 %.
  store i8 0, ptr %30, align 1, !tbaa !52
  %.not = icmp eq ptr %1, null
  br i1 %.not, label %34, label %31

31:                                               ; preds = %28
  %32 = tail call i64 @strlen(ptr noundef nonnull dereferenceable(1) %0) #17
  %33 = trunc i64 %32 to i32
  store i32 %33, ptr %1, align 4, !tbaa !46
  br label %34

34:                                               ; preds = %31, %28
  ret i32 0
}